target datalayout = "e-m:e-p270:32:32-p271:32:32-p272:64:64-i64:64-i128:128-f80:128-n8:16:32:64-S128"
target triple = "x86_64-pc-linux-gnu"

%struct.list_head = type { ptr, ptr }
%struct.strbuf = type { i64, i64, ptr }
%struct.walker_data = type { ptr, i32, ptr }
%struct.alt_base = type { ptr, i32, ptr, ptr }
%struct.walker = type { ptr, ptr, ptr, ptr, ptr, i32, i32, i32, i32 }
%struct.object_request = type { ptr, %struct.object_id, ptr, i32, ptr, %struct.list_head }
%struct.object_id = type { [32 x i8], i32 }
%struct.http_object_request = type { ptr, %struct.strbuf, i32, i32, [256 x i8], i64, %struct.object_id, %struct.object_id, %union.git_hash_ctx, %struct.git_zstream, i32, i32, ptr, ptr }
%union.git_hash_ctx = type { %struct.SHA1_CTX }
%struct.SHA1_CTX = type { i64, [5 x i32], [64 x i8], i32, i32, i32, i32, i32, ptr, [5 x i32], [5 x i32], [80 x i32], [80 x i32], [80 x [5 x i32]] }
%struct.git_zstream = type { %struct.z_stream_s, i64, i64, i64, i64, ptr, ptr }
%struct.z_stream_s = type { ptr, i32, i64, ptr, i32, i64, ptr, ptr, ptr, ptr, ptr, i32, i64, i64 }
%struct.active_request_slot = type { ptr, i32, i32, i64, ptr, ptr, ptr, ptr, ptr }

@.str.30 = private unnamed_addr constant [8 x i8] c"got %s\0A\00", align 1

; Function Attrs: nounwind uwtable
define internal void @finish_object_request(ptr noundef %0) #0 {
  %2 = alloca ptr, align 8
  store ptr %0, ptr %2, align 8, !tbaa !40
  %3 = load ptr, ptr %2, align 8, !tbaa !40
  %4 = getelementptr inbounds nuw %struct.object_request, ptr %3, i32 0, i32 4
  %5 = load ptr, ptr %4, align 8, !tbaa !50
  %6 = call i32 @finish_http_object_request(ptr noundef %5)
  %7 = icmp ne i32 %6, 0
  br i1 %7, label %8, label %9

8:                                                ; preds = %1
  br label %23

9:                                                ; preds = %1
  %10 = load ptr, ptr %2, align 8, !tbaa !40
  %11 = getelementptr inbounds nuw %struct.object_request, ptr %10, i32 0, i32 4
  %12 = load ptr, ptr %11, align 8, !tbaa !50
  %13 = getelementptr inbounds nuw %struct.http_object_request, ptr %12, i32 0, i32 11
  %14 = load i32, ptr %13, align 4, !tbaa !80
  %15 = icmp eq i32 %14, 0
  br i1 %15, label %16, label %23

16:                                               ; preds = %9
  %17 = load ptr, ptr %2, align 8, !tbaa !40
  %18 = getelementptr inbounds nuw %struct.object_request, ptr %17, i32 0, i32 0
  %19 = load ptr, ptr %18, align 8, !tbaa !42
  %20 = load ptr, ptr %2, align 8, !tbaa !40
  %21 = getelementptr inbounds nuw %struct.object_request, ptr %20, i32 0, i32 1
  %22 = call ptr @oid_to_hex(ptr noundef %21)
  call void (ptr, ptr, ...) @walker_say(ptr noundef %19, ptr noundef @.str.30, ptr noundef %22)
  br label %23

23:                                               ; preds = %8, %16, %9
  ret void
}

; Function Attrs: nounwind uwtable
define internal void @start_object_request(ptr noundef %0) #0 {
  %2 = alloca ptr, align 8
  %3 = alloca ptr, align 8
  %4 = alloca ptr, align 8
  %5 = alloca i32, align 4
  store ptr %0, ptr %2, align 8, !tbaa !40
  call void @llvm.lifetime.start.p0(i64 8, ptr %3) #8
  call void @llvm.lifetime.start.p0(i64 8, ptr %4) #8
  %6 = load ptr, ptr %2, align 8, !tbaa !40
  %7 = getelementptr inbounds nuw %struct.object_request, ptr %6, i32 0, i32 2
  %8 = load ptr, ptr %7, align 8, !tbaa !48
  %9 = getelementptr inbounds nuw %struct.alt_base, ptr %8, i32 0, i32 0
  %10 = load ptr, ptr %9, align 8, !tbaa !17
  %11 = load ptr, ptr %2, align 8, !tbaa !40
  %12 = getelementptr inbounds nuw %struct.object_request, ptr %11, i32 0, i32 1
  %13 = call ptr @new_http_object_request(ptr noundef %10, ptr noundef %12)
  store ptr %13, ptr %4, align 8, !tbaa !74
  %14 = load ptr, ptr %4, align 8, !tbaa !74
  %15 = icmp ne ptr %14, null
  br i1 %15, label %19, label %16

16:                                               ; preds = %1
  %17 = load ptr, ptr %2, align 8, !tbaa !40
  %18 = getelementptr inbounds nuw %struct.object_request, ptr %17, i32 0, i32 3
  store i32 1, ptr %18, align 8, !tbaa !49
  store i32 1, ptr %5, align 4
  br label %40

19:                                               ; preds = %1
  %20 = load ptr, ptr %4, align 8, !tbaa !74
  %21 = load ptr, ptr %2, align 8, !tbaa !40
  %22 = getelementptr inbounds nuw %struct.object_request, ptr %21, i32 0, i32 4
  store ptr %20, ptr %22, align 8, !tbaa !50
  %23 = load ptr, ptr %4, align 8, !tbaa !74
  %24 = getelementptr inbounds nuw %struct.http_object_request, ptr %23, i32 0, i32 12
  %25 = load ptr, ptr %24, align 8, !tbaa !64
  store ptr %25, ptr %3, align 8, !tbaa !97
  %26 = load ptr, ptr %3, align 8, !tbaa !97
  %27 = getelementptr inbounds nuw %struct.active_request_slot, ptr %26, i32 0, i32 7
  store ptr @process_object_response, ptr %27, align 8, !tbaa !98
  %28 = load ptr, ptr %2, align 8, !tbaa !40
  %29 = load ptr, ptr %3, align 8, !tbaa !97
  %30 = getelementptr inbounds nuw %struct.active_request_slot, ptr %29, i32 0, i32 6
  store ptr %28, ptr %30, align 8, !tbaa !102
  %31 = load ptr, ptr %2, align 8, !tbaa !40
  %32 = getelementptr inbounds nuw %struct.object_request, ptr %31, i32 0, i32 3
  store i32 2, ptr %32, align 8, !tbaa !49
  %33 = load ptr, ptr %3, align 8, !tbaa !97
  %34 = call i32 @start_active_slot(ptr noundef %33)
  %35 = icmp ne i32 %34, 0
  br i1 %35, label %39, label %36

36:                                               ; preds = %19
  %37 = load ptr, ptr %2, align 8, !tbaa !40
  %38 = getelementptr inbounds nuw %struct.object_request, ptr %37, i32 0, i32 3
  store i32 1, ptr %38, align 8, !tbaa !49
  call void @release_http_object_request(ptr noundef %4)
  store i32 1, ptr %5, align 4
  br label %40

39:                                               ; preds = %19
  store i32 0, ptr %5, align 4
  br label %40

40:                                               ; preds = %39, %36, %16
  call void @llvm.lifetime.end.p0(i64 8, ptr %4) #8
  call void @llvm.lifetime.end.p0(i64 8, ptr %3) #8
  %41 = load i32, ptr %5, align 4
  switch i32 %41, label %43 [
    i32 0, label %42
    i32 1, label %42
  ]

42:                                               ; preds = %40, %40
  ret void

43:                                               ; preds = %40
  unreachable
}

; Function Attrs: inlinehint nounwind uwtable
define internal i32 @missing__target(i32 noundef %0, i32 noundef %1) #4 {
  %3 = alloca i32, align 4
  %4 = alloca i32, align 4
  store i32 %0, ptr %3, align 4, !tbaa !52
  store i32 %1, ptr %4, align 4, !tbaa !52
  %5 = load i32, ptr %4, align 4, !tbaa !52
  %6 = icmp eq i32 %5, 37
  br i1 %6, label %21, label %7

7:                                                ; preds = %2
  %8 = load i32, ptr %3, align 4, !tbaa !52
  %9 = icmp eq i32 %8, 404
  br i1 %9, label %10, label %13

10:                                               ; preds = %7
  %11 = load i32, ptr %4, align 4, !tbaa !52
  %12 = icmp eq i32 %11, 22
  br i1 %12, label %21, label %13

13:                                               ; preds = %10, %7
  %14 = load i32, ptr %3, align 4, !tbaa !52
  %15 = icmp eq i32 %14, 550
  br i1 %15, label %16, label %19

16:                                               ; preds = %13
  %17 = load i32, ptr %4, align 4, !tbaa !52
  %18 = icmp eq i32 %17, 19
  br label %19

19:                                               ; preds = %16, %13
  %20 = phi i1 [ false, %13 ], [ %18, %16 ]
  br label %21

21:                                               ; preds = %19, %10, %2
  %22 = phi i1 [ true, %10 ], [ true, %2 ], [ %20, %19 ]
  %23 = zext i1 %22 to i32
  ret i32 %23
}

; Function Attrs: nounwind uwtable
define internal void @process_object_response(ptr noundef %0) #0 {
  %2 = alloca ptr, align 8
  %3 = alloca ptr, align 8
  %4 = alloca ptr, align 8
  %5 = alloca ptr, align 8
  %6 = alloca ptr, align 8
  %7 = alloca i32, align 4
  store ptr %0, ptr %2, align 8, !tbaa !56
  call void @llvm.lifetime.start.p0(i64 8, ptr %3) #8
  %8 = load ptr, ptr %2, align 8, !tbaa !56
  store ptr %8, ptr %3, align 8, !tbaa !40
  call void @llvm.lifetime.start.p0(i64 8, ptr %4) #8
  %9 = load ptr, ptr %3, align 8, !tbaa !40
  %10 = getelementptr inbounds nuw %struct.object_request, ptr %9, i32 0, i32 0
  %11 = load ptr, ptr %10, align 8, !tbaa !42
  store ptr %11, ptr %4, align 8, !tbaa !11
  call void @llvm.lifetime.start.p0(i64 8, ptr %5) #8
  %12 = load ptr, ptr %4, align 8, !tbaa !11
  %13 = getelementptr inbounds nuw %struct.walker, ptr %12, i32 0, i32 0
  %14 = load ptr, ptr %13, align 8, !tbaa !33
  store ptr %14, ptr %5, align 8, !tbaa !9
  call void @llvm.lifetime.start.p0(i64 8, ptr %6) #8
  %15 = load ptr, ptr %5, align 8, !tbaa !9
  %16 = getelementptr inbounds nuw %struct.walker_data, ptr %15, i32 0, i32 2
  %17 = load ptr, ptr %16, align 8, !tbaa !13
  store ptr %17, ptr %6, align 8, !tbaa !36
  %18 = load ptr, ptr %3, align 8, !tbaa !40
  %19 = getelementptr inbounds nuw %struct.object_request, ptr %18, i32 0, i32 4
  %20 = load ptr, ptr %19, align 8, !tbaa !50
  call void @process_http_object_request(ptr noundef %20)
  %21 = load ptr, ptr %3, align 8, !tbaa !40
  %22 = getelementptr inbounds nuw %struct.object_request, ptr %21, i32 0, i32 3
  store i32 3, ptr %22, align 8, !tbaa !49
  %23 = load ptr, ptr %3, align 8, !tbaa !40
  %24 = getelementptr inbounds nuw %struct.object_request, ptr %23, i32 0, i32 4
  %25 = load ptr, ptr %24, align 8, !tbaa !50
  %26 = getelementptr inbounds nuw %struct.http_object_request, ptr %25, i32 0, i32 3
  %27 = load ptr, ptr %3, align 8, !tbaa !40
  %28 = getelementptr inbounds nuw %struct.object_request, ptr %27, i32 0, i32 4
  %29 = load ptr, ptr %28, align 8, !tbaa !50
  %30 = getelementptr inbounds nuw %struct.http_object_request, ptr %29, i32 0, i32 5
  %31 = load i64, ptr %30, align 8, !tbaa !76
  %32 = load ptr, ptr %3, align 8, !tbaa !40
  %33 = getelementptr inbounds nuw %struct.object_request, ptr %32, i32 0, i32 4
  %34 = load ptr, ptr %33, align 8, !tbaa !50
  %35 = getelementptr inbounds nuw %struct.http_object_request, ptr %34, i32 0, i32 4
  %36 = getelementptr inbounds [256 x i8], ptr %35, i64 0, i64 0
  call void @normalize_curl_result(ptr noundef %26, i64 noundef %31, ptr noundef %36, i64 noundef 256)
  %37 = load ptr, ptr %3, align 8, !tbaa !40
  %38 = getelementptr inbounds nuw %struct.object_request, ptr %37, i32 0, i32 4
  %39 = load ptr, ptr %38, align 8, !tbaa !50
  %40 = getelementptr inbounds nuw %struct.http_object_request, ptr %39, i32 0, i32 5
  %41 = load i64, ptr %40, align 8, !tbaa !76
  %42 = trunc i64 %41 to i32
  %43 = load ptr, ptr %3, align 8, !tbaa !40
  %44 = getelementptr inbounds nuw %struct.object_request, ptr %43, i32 0, i32 4
  %45 = load ptr, ptr %44, align 8, !tbaa !50
  %46 = getelementptr inbounds nuw %struct.http_object_request, ptr %45, i32 0, i32 3
  %47 = load i32, ptr %46, align 4, !tbaa !77
  %48 = call i32 @missing__target(i32 noundef %42, i32 noundef %47)
  %49 = icmp ne i32 %48, 0
  br i1 %49, label %50, label %73

50:                                               ; preds = %1
  %51 = load ptr, ptr %4, align 8, !tbaa !11
  %52 = load ptr, ptr %6, align 8, !tbaa !36
  %53 = getelementptr inbounds nuw %struct.alt_base, ptr %52, i32 0, i32 0
  %54 = load ptr, ptr %53, align 8, !tbaa !17
  call void @fetch_alternates(ptr noundef %51, ptr noundef %54)
  %55 = load ptr, ptr %3, align 8, !tbaa !40
  %56 = getelementptr inbounds nuw %struct.object_request, ptr %55, i32 0, i32 2
  %57 = load ptr, ptr %56, align 8, !tbaa !48
  %58 = getelementptr inbounds nuw %struct.alt_base, ptr %57, i32 0, i32 3
  %59 = load ptr, ptr %58, align 8, !tbaa !25
  %60 = icmp ne ptr %59, null
  br i1 %60, label %61, label %72

61:                                               ; preds = %50
  %62 = load ptr, ptr %3, align 8, !tbaa !40
  %63 = getelementptr inbounds nuw %struct.object_request, ptr %62, i32 0, i32 2
  %64 = load ptr, ptr %63, align 8, !tbaa !48
  %65 = getelementptr inbounds nuw %struct.alt_base, ptr %64, i32 0, i32 3
  %66 = load ptr, ptr %65, align 8, !tbaa !25
  %67 = load ptr, ptr %3, align 8, !tbaa !40
  %68 = getelementptr inbounds nuw %struct.object_request, ptr %67, i32 0, i32 2
  store ptr %66, ptr %68, align 8, !tbaa !48
  %69 = load ptr, ptr %3, align 8, !tbaa !40
  %70 = getelementptr inbounds nuw %struct.object_request, ptr %69, i32 0, i32 4
  call void @release_http_object_request(ptr noundef %70)
  %71 = load ptr, ptr %3, align 8, !tbaa !40
  call void @start_object_request(ptr noundef %71)
  store i32 1, ptr %7, align 4
  br label %75

72:                                               ; preds = %50
  br label %73

73:                                               ; preds = %72, %1
  %74 = load ptr, ptr %3, align 8, !tbaa !40
  call void @finish_object_request(ptr noundef %74)
  store i32 0, ptr %7, align 4
  br label %75

75:                                               ; preds = %73, %61
  call void @llvm.lifetime.end.p0(i64 8, ptr %6) #8
  call void @llvm.lifetime.end.p0(i64 8, ptr %5) #8
  call void @llvm.lifetime.end.p0(i64 8, ptr %4) #8
  call void @llvm.lifetime.end.p0(i64 8, ptr %3) #8
  %76 = load i32, ptr %7, align 4
  switch i32 %76, label %78 [
    i32 0, label %77
    i32 1, label %77
  ]

77:                                               ; preds = %75, %75
  ret void

78:                                               ; preds = %75
  unreachable
}