; Function Attrs: nounwind uwtable
define internal void @process_object_response(ptr noundef initializes((56, 60)) %0) #0 {
  %2 = alloca ptr, align 8
  %3 = load ptr, ptr %0, align 8, !tbaa !74
  %4 = load ptr, ptr %3, align 8, !tbaa !26
  %5 = getelementptr inbounds nuw i8, ptr %4, i64 16
  %6 = load ptr, ptr %5, align 8, !tbaa !4
  %7 = getelementptr inbounds nuw i8, ptr %0, i64 64
  %8 = load ptr, ptr %7, align 8, !tbaa !38
  tail call void @process_http_object_request(ptr noundef %8) #11
  %9 = getelementptr inbounds nuw i8, ptr %0, i64 56
  store i32 3, ptr %9, align 8, !tbaa !33
  %10 = load ptr, ptr %7, align 8, !tbaa !38
  %11 = getelementptr inbounds nuw i8, ptr %10, i64 36
  %12 = getelementptr inbounds nuw i8, ptr %10, i64 296
  %13 = load i64, ptr %12, align 8, !tbaa !52
  %14 = getelementptr inbounds nuw i8, ptr %10, i64 40
  tail call void @normalize_curl_result(ptr noundef nonnull %11, i64 noundef %13, ptr noundef nonnull %14, i64 noundef 256) #11
  %15 = load ptr, ptr %7, align 8, !tbaa !38
  %16 = getelementptr inbounds nuw i8, ptr %15, i64 296
  %17 = load i64, ptr %16, align 8, !tbaa !52
  %18 = trunc i64 %17 to i32
  %19 = getelementptr inbounds nuw i8, ptr %15, i64 36
  %20 = load i32, ptr %19, align 4, !tbaa !53
  %21 = icmp eq i32 %20, 37
  br i1 %21, label %missing__target.exit.thread, label %22

22:                                               ; preds = %1
  %23 = icmp eq i32 %18, 404
  %24 = icmp eq i32 %20, 22
  %or.cond.i = and i1 %23, %24
  br i1 %or.cond.i, label %missing__target.exit.thread, label %missing__target.exit

missing__target.exit:                             ; preds = %22
  %25 = icmp ne i32 %18, 550
  %26 = icmp ne i32 %20, 19
  %.not24 = or i1 %25, %26
  br i1 %.not24, label %45, label %missing__target.exit.thread

missing__target.exit.thread:                      ; preds = %22, %1, %missing__target.exit
  %27 = load ptr, ptr %6, align 8, !tbaa !12
  tail call fastcc void @fetch_alternates(ptr noundef nonnull %3, ptr noundef %27)
  %28 = getelementptr inbounds nuw i8, ptr %0, i64 48
  %29 = load ptr, ptr %28, align 8, !tbaa !76
  %30 = getelementptr inbounds nuw i8, ptr %29, i64 24
  %31 = load ptr, ptr %30, align 8, !tbaa !72
  %.not19 = icmp eq ptr %31, null
  br i1 %.not19, label %missing__target.exit.thread._crit_edge, label %32

missing__target.exit.thread._crit_edge:           ; preds = %missing__target.exit.thread
  %.pre = load ptr, ptr %7, align 8, !tbaa !38
  br label %45

32:                                               ; preds = %missing__target.exit.thread
  store ptr %31, ptr %28, align 8, !tbaa !76
  tail call void @release_http_object_request(ptr noundef nonnull %7) #11
  call void @llvm.lifetime.start.p0(i64 8, ptr nonnull %2) #11
  %33 = load ptr, ptr %28, align 8, !tbaa !76
  %34 = load ptr, ptr %33, align 8, !tbaa !12
  %35 = getelementptr inbounds nuw i8, ptr %0, i64 8
  %36 = tail call ptr @new_http_object_request(ptr noundef %34, ptr noundef nonnull %35) #11
  store ptr %36, ptr %2, align 8, !tbaa !81
  %.not.i = icmp eq ptr %36, null
  br i1 %.not.i, label %37, label %38

37:                                               ; preds = %32
  store i32 1, ptr %9, align 8, !tbaa !33
  br label %start_object_request.exit

38:                                               ; preds = %32
  store ptr %36, ptr %7, align 8, !tbaa !38
  %39 = getelementptr inbounds nuw i8, ptr %36, i64 2944
  %40 = load ptr, ptr %39, align 8, !tbaa !50
  %41 = getelementptr inbounds nuw i8, ptr %40, i64 48
  store ptr @process_object_response, ptr %41, align 8, !tbaa !82
  %42 = getelementptr inbounds nuw i8, ptr %40, i64 40
  store ptr %0, ptr %42, align 8, !tbaa !83
  store i32 2, ptr %9, align 8, !tbaa !33
  %43 = tail call i32 @start_active_slot(ptr noundef %40) #11
  %.not10.i = icmp eq i32 %43, 0
  br i1 %.not10.i, label %44, label %start_object_request.exit

44:                                               ; preds = %38
  store i32 1, ptr %9, align 8, !tbaa !33
  call void @release_http_object_request(ptr noundef nonnull %2) #11
  br label %start_object_request.exit

start_object_request.exit:                        ; preds = %37, %38, %44
  call void @llvm.lifetime.end.p0(i64 8, ptr nonnull %2) #11
  br label %finish_object_request.exit

45:                                               ; preds = %missing__target.exit.thread._crit_edge, %missing__target.exit
  %46 = phi ptr [ %.pre, %missing__target.exit.thread._crit_edge ], [ %15, %missing__target.exit ]
  %47 = tail call i32 @finish_http_object_request(ptr noundef %46) #11
  %.not.i20 = icmp eq i32 %47, 0
  br i1 %.not.i20, label %48, label %finish_object_request.exit

48:                                               ; preds = %45
  %49 = load ptr, ptr %7, align 8, !tbaa !38
  %50 = getelementptr inbounds nuw i8, ptr %49, i64 2940
  %51 = load i32, ptr %50, align 4, !tbaa !56
  %52 = icmp eq i32 %51, 0
  br i1 %52, label %53, label %finish_object_request.exit

53:                                               ; preds = %48
  %54 = load ptr, ptr %0, align 8, !tbaa !74
  %55 = getelementptr inbounds nuw i8, ptr %0, i64 8
  %56 = tail call ptr @oid_to_hex(ptr noundef nonnull %55) #11
  tail call void (ptr, ptr, ...) @walker_say(ptr noundef %54, ptr noundef nonnull @.str.30, ptr noundef %56) #11
  br label %finish_object_request.exit

finish_object_request.exit:                       ; preds = %53, %48, %45, %start_object_request.exit
  ret void
}